; Function Attrs: mustprogress uwtable
define noundef i64 @_ZNK7openvdb5v11_06points12AttributeSet10Descriptor12unusedGroupsEv(ptr nocapture noundef nonnull readonly align 8 dereferenceable(240) %this) local_unnamed_addr #3 align 2 {
entry:
  %call = tail call noundef i64 @_ZNK7openvdb5v11_06points12AttributeSet10Descriptor15availableGroupsEv(ptr noundef nonnull align 8 dereferenceable(240) %this)
  %cmp = icmp eq i64 %call, 0
  %_M_node_count.i.i = getelementptr inbounds i8, ptr %this, i64 112
  %0 = load i64, ptr %_M_node_count.i.i, align 8
  %sub = sub i64 %call, %0
  %retval.0 = select i1 %cmp, i64 0, i64 %sub
  ret i64 %retval.0
}